; Function Attrs: nofree norecurse nosync nounwind memory(read, argmem: readwrite, inaccessiblemem: none) uwtable
define internal void @SimpleHFilter16i_C(ptr noundef captures(none) %0, i32 noundef %1, i32 noundef %2) #5 {
  %4 = shl nsw i32 %2, 1
  %5 = or disjoint i32 %4, 1
  %6 = load ptr, ptr @VP8kabs0, align 8, !tbaa !18
  %7 = load ptr, ptr @VP8ksclip1, align 8
  %8 = load ptr, ptr @VP8ksclip2, align 8
  %9 = load ptr, ptr @VP8kclip1, align 8
  %10 = sext i32 %1 to i64
  br label %11

11:                                               ; preds = %3, %SimpleHFilter16_C.exit
  %.07 = phi i32 [ 3, %3 ], [ %67, %SimpleHFilter16_C.exit ]
  %.056 = phi ptr [ %0, %3 ], [ %12, %SimpleHFilter16_C.exit ]
  %12 = getelementptr inbounds nuw i8, ptr %.056, i64 4
  br label %13

13:                                               ; preds = %66, %11
  %indvars.iv.i = phi i64 [ 0, %11 ], [ %indvars.iv.next.i, %66 ]
  %14 = mul nsw i64 %indvars.iv.i, %10
  %15 = getelementptr inbounds i8, ptr %12, i64 %14
  %16 = getelementptr inbounds i8, ptr %15, i64 -2
  %17 = load i8, ptr %16, align 1, !tbaa !14
  %18 = zext i8 %17 to i64
  %19 = getelementptr inbounds i8, ptr %15, i64 -1
  %20 = load i8, ptr %19, align 1, !tbaa !14
  %21 = zext i8 %20 to i64
  %22 = load i8, ptr %15, align 1, !tbaa !14
  %23 = zext i8 %22 to i64
  %24 = getelementptr inbounds nuw i8, ptr %15, i64 1
  %25 = load i8, ptr %24, align 1, !tbaa !14
  %26 = zext i8 %25 to i64
  %27 = sub nsw i64 %21, %23
  %28 = getelementptr inbounds i8, ptr %6, i64 %27
  %29 = load i8, ptr %28, align 1, !tbaa !14
  %30 = zext i8 %29 to i32
  %31 = shl nuw nsw i32 %30, 2
  %32 = sub nsw i64 %18, %26
  %33 = getelementptr inbounds i8, ptr %6, i64 %32
  %34 = load i8, ptr %33, align 1, !tbaa !14
  %35 = zext i8 %34 to i32
  %36 = add nuw nsw i32 %31, %35
  %.not9.i = icmp sgt i32 %36, %5
  br i1 %.not9.i, label %66, label %37

37:                                               ; preds = %13
  %38 = zext i8 %20 to i32
  %39 = zext i8 %22 to i32
  %40 = sub nsw i32 %39, %38
  %41 = mul nsw i32 %40, 3
  %42 = getelementptr inbounds i8, ptr %7, i64 %32
  %43 = load i8, ptr %42, align 1, !tbaa !14
  %44 = sext i8 %43 to i32
  %45 = add nsw i32 %41, %44
  %46 = add nsw i32 %45, 4
  %47 = ashr i32 %46, 3
  %48 = sext i32 %47 to i64
  %49 = getelementptr inbounds i8, ptr %8, i64 %48
  %50 = load i8, ptr %49, align 1, !tbaa !14
  %51 = sext i8 %50 to i32
  %52 = add nsw i32 %45, 3
  %53 = ashr i32 %52, 3
  %54 = sext i32 %53 to i64
  %55 = getelementptr inbounds i8, ptr %8, i64 %54
  %56 = load i8, ptr %55, align 1, !tbaa !14
  %57 = sext i8 %56 to i32
  %58 = add nsw i32 %57, %38
  %59 = sext i32 %58 to i64
  %60 = getelementptr inbounds i8, ptr %9, i64 %59
  %61 = load i8, ptr %60, align 1, !tbaa !14
  store i8 %61, ptr %19, align 1, !tbaa !14
  %62 = sub nsw i32 %39, %51
  %63 = sext i32 %62 to i64
  %64 = getelementptr inbounds i8, ptr %9, i64 %63
  %65 = load i8, ptr %64, align 1, !tbaa !14
  store i8 %65, ptr %15, align 1, !tbaa !14
  br label %66

66:                                               ; preds = %37, %13
  %indvars.iv.next.i = add nuw nsw i64 %indvars.iv.i, 1
  %exitcond.not.i = icmp eq i64 %indvars.iv.next.i, 16
  br i1 %exitcond.not.i, label %SimpleHFilter16_C.exit, label %13, !llvm.loop !21

SimpleHFilter16_C.exit:                           ; preds = %66
  %67 = add nsw i32 %.07, -1
  %68 = icmp ugt i32 %.07, 1
  br i1 %68, label %11, label %69, !llvm.loop !23

69:                                               ; preds = %SimpleHFilter16_C.exit
  ret void
}